target datalayout = "e-m:e-p270:32:32-p271:32:32-p272:64:64-i64:64-i128:128-f80:128-n8:16:32:64-S128"
target triple = "x86_64-pc-linux-gnu"

@.str.242 = private unnamed_addr constant [3 x i8] c"%s\00", align 1
@.str.332 = private unnamed_addr constant [6 x i8] c" = %s\00", align 1
@.str.367 = private unnamed_addr constant [9 x i8] c"%u.%u.%u\00", align 1

; Function Attrs: null_pointer_is_valid sspstrong uwtable
define internal ptr @knxip_tree_add_knx_address(ptr noundef %0, i32 noundef %1, ptr noundef %2, i32 noundef %3, ptr noundef %4, i32 noundef %5) #0 {
  %7 = alloca ptr, align 8
  %8 = alloca i32, align 4
  %9 = alloca ptr, align 8
  %10 = alloca i32, align 4
  %11 = alloca ptr, align 8
  %12 = alloca i32, align 4
  %13 = alloca i16, align 2
  %14 = alloca [32 x i8], align 16
  %15 = alloca ptr, align 8
  store ptr %0, ptr %7, align 8
  store i32 %1, ptr %8, align 4
  store ptr %2, ptr %9, align 8
  store i32 %3, ptr %10, align 4
  store ptr %4, ptr %11, align 8
  store i32 %5, ptr %12, align 4
  call void @llvm.lifetime.start.p0(i64 2, ptr %13) #9
  %16 = load ptr, ptr %9, align 8
  %17 = load i32, ptr %10, align 4
  %18 = call zeroext i16 @tvb_get_ntohs(ptr noundef %16, i32 noundef %17)
  store i16 %18, ptr %13, align 2
  call void @llvm.lifetime.start.p0(i64 32, ptr %14) #9
  %19 = getelementptr inbounds [32 x i8], ptr %14, i64 0, i64 0
  %20 = load i16, ptr %13, align 2
  %21 = zext i16 %20 to i32
  %22 = ashr i32 %21, 12
  %23 = and i32 %22, 15
  %24 = load i16, ptr %13, align 2
  %25 = zext i16 %24 to i32
  %26 = ashr i32 %25, 8
  %27 = and i32 %26, 15
  %28 = load i16, ptr %13, align 2
  %29 = zext i16 %28 to i32
  %30 = and i32 %29, 255
  %31 = call i32 (ptr, i64, i32, i64, ptr, ...) @__snprintf_chk(ptr noundef %19, i64 noundef 32, i32 noundef 2, i64 noundef 32, ptr noundef @.str.367, i32 noundef %23, i32 noundef %27, i32 noundef %30)
  %32 = load ptr, ptr %11, align 8
  %33 = icmp ne ptr %32, null
  br i1 %33, label %34, label %42

34:                                               ; preds = %6
  %35 = load ptr, ptr %11, align 8
  %36 = load i32, ptr %12, align 4
  %37 = sext i32 %36 to i64
  %38 = load ptr, ptr %11, align 8
  %39 = call i64 @llvm.objectsize.i64.p0(ptr %38, i1 false, i1 true, i1 true)
  %40 = getelementptr inbounds [32 x i8], ptr %14, i64 0, i64 0
  %41 = call i32 (ptr, i64, i32, i64, ptr, ...) @__snprintf_chk(ptr noundef %35, i64 noundef %37, i32 noundef 2, i64 noundef %39, ptr noundef @.str.242, ptr noundef %40)
  br label %42

42:                                               ; preds = %34, %6
  call void @llvm.lifetime.start.p0(i64 8, ptr %15) #9
  %43 = load ptr, ptr %7, align 8
  %44 = load i32, ptr %8, align 4
  %45 = load ptr, ptr %9, align 8
  %46 = load i32, ptr %10, align 4
  %47 = call ptr @proto_tree_add_item(ptr noundef %43, i32 noundef %44, ptr noundef %45, i32 noundef %46, i32 noundef 2, i32 noundef 0)
  store ptr %47, ptr %15, align 8
  %48 = load ptr, ptr %15, align 8
  %49 = getelementptr inbounds [32 x i8], ptr %14, i64 0, i64 0
  call void (ptr, ptr, ...) @proto_item_append_text(ptr noundef %48, ptr noundef @.str.332, ptr noundef %49)
  %50 = load ptr, ptr %15, align 8
  call void @llvm.lifetime.end.p0(i64 8, ptr %15) #9
  call void @llvm.lifetime.end.p0(i64 32, ptr %14) #9
  call void @llvm.lifetime.end.p0(i64 2, ptr %13) #9
  ret ptr %50
}