; Function Attrs: null_pointer_is_valid sspstrong uwtable
define internal fastcc void @knxip_tree_add_knx_address(ptr noundef %0, i32 noundef %1, ptr noundef %2, i32 noundef %3, ptr noundef %4, i32 noundef range(i32 32, 41) %5) unnamed_addr #0 {
  %7 = alloca [32 x i8], align 16
  %8 = tail call zeroext i16 @tvb_get_ntohs(ptr noundef %2, i32 noundef %3)
  call void @llvm.lifetime.start.p0(i64 32, ptr nonnull %7) #11
  %9 = zext i16 %8 to i32
  %10 = lshr i32 %9, 12
  %11 = lshr i32 %9, 8
  %12 = and i32 %11, 15
  %13 = and i32 %9, 255
  %14 = call i32 (ptr, i64, i32, i64, ptr, ...) @__snprintf_chk(ptr noundef nonnull %7, i64 noundef 32, i32 noundef 2, i64 noundef 32, ptr noundef nonnull @.str.367, i32 noundef %10, i32 noundef %12, i32 noundef %13)
  %.not = icmp eq ptr %4, null
  br i1 %.not, label %18, label %15

15:                                               ; preds = %6
  %16 = zext nneg i32 %5 to i64
  %17 = call i32 (ptr, i64, i32, i64, ptr, ...) @__snprintf_chk(ptr noundef nonnull %4, i64 noundef %16, i32 noundef 2, i64 noundef -1, ptr noundef nonnull @.str.242, ptr noundef nonnull %7)
  br label %18

18:                                               ; preds = %15, %6
  %19 = call ptr @proto_tree_add_item(ptr noundef %0, i32 noundef %1, ptr noundef %2, i32 noundef %3, i32 noundef 2, i32 noundef 0)
  call void (ptr, ptr, ...) @proto_item_append_text(ptr noundef %19, ptr noundef nonnull @.str.332, ptr noundef nonnull %7)
  call void @llvm.lifetime.end.p0(i64 32, ptr nonnull %7) #11
  ret void
}